; Function Attrs: null_pointer_is_valid sspstrong uwtable
define hidden noalias noundef ptr @drange_dup(ptr noundef readonly captures(address_is_null) %0) local_unnamed_addr #0 {
  %.not = icmp eq ptr %0, null
  br i1 %.not, label %.loopexit, label %2

2:                                                ; preds = %1
  %3 = tail call noalias dereferenceable_or_null(24) ptr @g_malloc(i64 noundef 24) #11
  store ptr null, ptr %3, align 8
  %4 = getelementptr inbounds nuw i8, ptr %3, i64 8
  store i8 1, ptr %4, align 8
  %5 = getelementptr inbounds nuw i8, ptr %3, i64 12
  store i32 0, ptr %5, align 4
  %6 = getelementptr inbounds nuw i8, ptr %3, i64 16
  store i32 2147483647, ptr %6, align 8
  %7 = getelementptr inbounds nuw i8, ptr %3, i64 20
  store i32 -2147483648, ptr %7, align 4
  %.0915 = load ptr, ptr %0, align 8
  %.not1116 = icmp eq ptr %.0915, null
  br i1 %.not1116, label %.loopexit, label %.lr.ph

.lr.ph:                                           ; preds = %2, %drange_append_drange_node.exit
  %8 = phi ptr [ %37, %drange_append_drange_node.exit ], [ null, %2 ]
  %.0917 = phi ptr [ %.09, %drange_append_drange_node.exit ], [ %.0915, %2 ]
  %9 = load ptr, ptr %.0917, align 8
  %.not.i = icmp eq ptr %9, null
  br i1 %.not.i, label %drange_append_drange_node.exit, label %drange_node_dup.exit

drange_node_dup.exit:                             ; preds = %.lr.ph
  %10 = tail call noalias dereferenceable_or_null(16) ptr @g_malloc(i64 noundef 16) #11
  %11 = load i32, ptr %9, align 4
  store i32 %11, ptr %10, align 4
  %12 = getelementptr inbounds nuw i8, ptr %9, i64 4
  %13 = load i32, ptr %12, align 4
  %14 = getelementptr inbounds nuw i8, ptr %10, i64 4
  store i32 %13, ptr %14, align 4
  %15 = getelementptr inbounds nuw i8, ptr %9, i64 8
  %16 = load i32, ptr %15, align 4
  %17 = getelementptr inbounds nuw i8, ptr %10, i64 8
  store i32 %16, ptr %17, align 4
  %18 = getelementptr inbounds nuw i8, ptr %9, i64 12
  %19 = load i32, ptr %18, align 4
  %20 = getelementptr inbounds nuw i8, ptr %10, i64 12
  store i32 %19, ptr %20, align 4
  %.not.i12 = icmp eq ptr %10, null
  br i1 %.not.i12, label %drange_append_drange_node.exit, label %21

21:                                               ; preds = %drange_node_dup.exit
  %22 = tail call ptr @g_slist_append(ptr noundef %8, ptr noundef nonnull %10)
  store ptr %22, ptr %3, align 8
  %23 = load i32, ptr %20, align 4
  %24 = icmp eq i32 %23, 3
  br i1 %24, label %25, label %26

25:                                               ; preds = %21
  store i8 0, ptr %4, align 8
  br label %33

26:                                               ; preds = %21
  %27 = load i8, ptr %4, align 8, !range !9, !noundef !10
  %28 = trunc nuw i8 %27 to i1
  br i1 %28, label %29, label %33

29:                                               ; preds = %26
  %30 = load i32, ptr %14, align 4
  %31 = load i32, ptr %5, align 4
  %32 = add i32 %31, %30
  store i32 %32, ptr %5, align 4
  br label %33

33:                                               ; preds = %29, %26, %25
  %34 = load i32, ptr %10, align 4
  %35 = load i32, ptr %6, align 8
  %spec.store.select18 = tail call i32 @llvm.smin.i32(i32 %34, i32 %35)
  store i32 %spec.store.select18, ptr %6, align 8
  %36 = load i32, ptr %7, align 4
  %spec.store.select = tail call i32 @llvm.smax.i32(i32 %34, i32 %36)
  store i32 %spec.store.select, ptr %7, align 4
  br label %drange_append_drange_node.exit

drange_append_drange_node.exit:                   ; preds = %33, %.lr.ph, %drange_node_dup.exit
  %37 = phi ptr [ %22, %33 ], [ %8, %.lr.ph ], [ %8, %drange_node_dup.exit ]
  %38 = getelementptr inbounds nuw i8, ptr %.0917, i64 8
  %.09 = load ptr, ptr %38, align 8
  %.not11 = icmp eq ptr %.09, null
  br i1 %.not11, label %.loopexit, label %.lr.ph, !llvm.loop !11

.loopexit:                                        ; preds = %drange_append_drange_node.exit, %2, %1
  %.0 = phi ptr [ null, %1 ], [ %3, %2 ], [ %3, %drange_append_drange_node.exit ]
  ret ptr %.0
}